libdmlc.so.1:_ZN4dmlc10InputSplit6CreateEPKcS2_jjS2_bimb
libdmlc.so.1:_ZN4dmlc10InputSplit6CreateEPKcjjS2_
libdmlc.so.1:_ZN4dmlc10SeekStream13CreateForReadEPKcb
libdmlc.so.1:_ZN4dmlc12RowBlockIterIjfE6CreateEPKcjjS3_
libdmlc.so.1:_ZN4dmlc12RowBlockIterIjiE6CreateEPKcjjS3_
libdmlc.so.1:_ZN4dmlc12RowBlockIterIjlE6CreateEPKcjjS3_
libdmlc.so.1:_ZN4dmlc12RowBlockIterImfE6CreateEPKcjjS3_
libdmlc.so.1:_ZN4dmlc12RowBlockIterImiE6CreateEPKcjjS3_
libdmlc.so.1:_ZN4dmlc12RowBlockIterImlE6CreateEPKcjjS3_
libdmlc.so.1:_ZN4dmlc14RecordIOReader10NextRecordEPNSt7__cxx1112basic_stringIcSt11char_traitsIcESaIcEEE
libdmlc.so.1:_ZN4dmlc14RecordIOWriter11WriteRecordEPKvm
libdmlc.so.1:_ZN4dmlc18TemporaryDirectory15RecursiveDeleteERKNSt7__cxx1112basic_stringIcSt11char_traitsIcESaIcEEE
libdmlc.so.1:_ZN4dmlc19RecordIOChunkReader10NextRecordEPNS_10InputSplit4BlobE
libdmlc.so.1:_ZN4dmlc19RecordIOChunkReaderC1ENS_10InputSplit4BlobEjj
libdmlc.so.1:_ZN4dmlc19RecordIOChunkReaderC2ENS_10InputSplit4BlobEjj
libdmlc.so.1:_ZN4dmlc20MakeProtoStringValueERKNSt7__cxx1112basic_stringIcSt11char_traitsIcESaIcEEE
libdmlc.so.1:_ZN4dmlc2io10FileSystem11GetInstanceERKNS0_3URIE
libdmlc.so.1:_ZN4dmlc2io10FileSystem22ListDirectoryRecursiveERKNS0_3URIEPSt6vectorINS0_8FileInfoESaIS6_EE
libdmlc.so.1:_ZN4dmlc2io12LineSplitter15SeekRecordBeginEPNS_6StreamE
libdmlc.so.1:_ZN4dmlc2io12LineSplitter17ExtractNextRecordEPNS_10InputSplit4BlobEPNS0_14InputSplitBase5ChunkE
libdmlc.so.1:_ZN4dmlc2io12LineSplitter19FindLastRecordBeginEPKcS3_
libdmlc.so.1:_ZN4dmlc2io14InputSplitBase11BeforeFirstEv
libdmlc.so.1:_ZN4dmlc2io14InputSplitBase13ConvertToURIsERKNSt7__cxx1112basic_stringIcSt11char_traitsIcESaIcEEE
libdmlc.so.1:_ZN4dmlc2io14InputSplitBase14ResetPartitionEjj
libdmlc.so.1:_ZN4dmlc2io14InputSplitBase16ExtractNextChunkEPNS_10InputSplit4BlobEPNS1_5ChunkE
libdmlc.so.1:_ZN4dmlc2io14InputSplitBase17InitInputFileInfoERKNSt7__cxx1112basic_stringIcSt11char_traitsIcESaIcEEEb
libdmlc.so.1:_ZN4dmlc2io14InputSplitBase4InitEPNS0_10FileSystemEPKcmb
libdmlc.so.1:_ZN4dmlc2io14InputSplitBase4ReadEPvm
libdmlc.so.1:_ZN4dmlc2io14InputSplitBase5Chunk4LoadEPS1_m
libdmlc.so.1:_ZN4dmlc2io14InputSplitBase5Chunk6AppendEPS1_m
libdmlc.so.1:_ZN4dmlc2io14InputSplitBase8StripEndENSt7__cxx1112basic_stringIcSt11char_traitsIcESaIcEEEc
libdmlc.so.1:_ZN4dmlc2io14InputSplitBase9ReadChunkEPvPm
libdmlc.so.1:_ZN4dmlc2io14InputSplitBaseD0Ev
libdmlc.so.1:_ZN4dmlc2io14InputSplitBaseD1Ev
libdmlc.so.1:_ZN4dmlc2io14InputSplitBaseD2Ev
libdmlc.so.1:_ZN4dmlc2io15LocalFileSystem11GetPathInfoERKNS0_3URIE
libdmlc.so.1:_ZN4dmlc2io15LocalFileSystem11OpenForReadERKNS0_3URIEb
libdmlc.so.1:_ZN4dmlc2io15LocalFileSystem13ListDirectoryERKNS0_3URIEPSt6vectorINS0_8FileInfoESaIS6_EE
libdmlc.so.1:_ZN4dmlc2io15LocalFileSystem4OpenERKNS0_3URIEPKcb
libdmlc.so.1:_ZN4dmlc2io16RecordIOSplitter15SeekRecordBeginEPNS_6StreamE
libdmlc.so.1:_ZN4dmlc2io16RecordIOSplitter17ExtractNextRecordEPNS_10InputSplit4BlobEPNS0_14InputSplitBase5ChunkE
libdmlc.so.1:_ZN4dmlc2io16RecordIOSplitter19FindLastRecordBeginEPKcS3_
libdmlc.so.1:_ZN4dmlc2io23IndexedRecordIOSplitter11BeforeFirstEv
libdmlc.so.1:_ZN4dmlc2io23IndexedRecordIOSplitter11NextBatchExEPNS0_14InputSplitBase5ChunkEm
libdmlc.so.1:_ZN4dmlc2io23IndexedRecordIOSplitter13ReadIndexFileEPNS0_10FileSystemERKNSt7__cxx1112basic_stringIcSt11char_traitsIcESaIcEEE
libdmlc.so.1:_ZN4dmlc2io23IndexedRecordIOSplitter14ResetPartitionEjj
libdmlc.so.1:_ZN4dmlc2io23IndexedRecordIOSplitter15SeekRecordBeginEPNS_6StreamE
libdmlc.so.1:_ZN4dmlc2io23IndexedRecordIOSplitter17ExtractNextRecordEPNS_10InputSplit4BlobEPNS0_14InputSplitBase5ChunkE
libdmlc.so.1:_ZN4dmlc2io23IndexedRecordIOSplitter19FindLastRecordBeginEPKcS3_
libdmlc.so.1:_ZN4dmlc2io23IndexedRecordIOSplitter9NextBatchEPNS_10InputSplit4BlobEm
libdmlc.so.1:_ZN4dmlc2io23IndexedRecordIOSplitter9NextChunkEPNS_10InputSplit4BlobE
libdmlc.so.1:_ZN4dmlc2io23IndexedRecordIOSplitter9ReadChunkEPvPm
libdmlc.so.1:_ZN4dmlc4data14CSVParserParam11__MANAGER__Ev
libdmlc.so.1:_ZN4dmlc4data16LibFMParserParam11__MANAGER__Ev
libdmlc.so.1:_ZN4dmlc4data17LibSVMParserParam11__MANAGER__Ev
libdmlc.so.1:_ZN4dmlc6Config14ConfigIterator13FindNextIndexEv
libdmlc.so.1:_ZN4dmlc6Config14ConfigIteratorC1ERKS1_
libdmlc.so.1:_ZN4dmlc6Config14ConfigIteratorC1EmPKS0_
libdmlc.so.1:_ZN4dmlc6Config14ConfigIteratorC2ERKS1_
libdmlc.so.1:_ZN4dmlc6Config14ConfigIteratorC2EmPKS0_
libdmlc.so.1:_ZN4dmlc6Config14ConfigIteratorppEi
libdmlc.so.1:_ZN4dmlc6Config14ConfigIteratorppEv
libdmlc.so.1:_ZN4dmlc6Config14LoadFromStreamERSi
libdmlc.so.1:_ZN4dmlc6Config5ClearEv
libdmlc.so.1:_ZN4dmlc6Config6InsertERKNSt7__cxx1112basic_stringIcSt11char_traitsIcESaIcEEES8_b
libdmlc.so.1:_ZN4dmlc6ConfigC1ERSib
libdmlc.so.1:_ZN4dmlc6ConfigC1Eb
libdmlc.so.1:_ZN4dmlc6ConfigC2ERSib
libdmlc.so.1:_ZN4dmlc6ConfigC2Eb
libdmlc.so.1:_ZN4dmlc6ParserIjfE6CreateEPKcjjS3_
libdmlc.so.1:_ZN4dmlc6ParserIjiE6CreateEPKcjjS3_
libdmlc.so.1:_ZN4dmlc6ParserIjlE6CreateEPKcjjS3_
libdmlc.so.1:_ZN4dmlc6ParserImfE6CreateEPKcjjS3_
libdmlc.so.1:_ZN4dmlc6ParserImiE6CreateEPKcjjS3_
libdmlc.so.1:_ZN4dmlc6ParserImlE6CreateEPKcjjS3_
libdmlc.so.1:_ZN4dmlc6Stream6CreateEPKcS2_b
libdmlc.so.1:_ZN4dmlc8RegistryINS_16ParserFactoryRegIjfEEE3GetEv
libdmlc.so.1:_ZN4dmlc8RegistryINS_16ParserFactoryRegIjiEEE3GetEv
libdmlc.so.1:_ZN4dmlc8RegistryINS_16ParserFactoryRegIjlEEE3GetEv
libdmlc.so.1:_ZN4dmlc8RegistryINS_16ParserFactoryRegImfEEE3GetEv
libdmlc.so.1:_ZN4dmlc8RegistryINS_16ParserFactoryRegImiEEE3GetEv
libdmlc.so.1:_ZN4dmlc8RegistryINS_16ParserFactoryRegImlEEE3GetEv
libdmlc.so.1:_ZNK4dmlc6Config13ToProtoStringB5cxx11Ev
libdmlc.so.1:_ZNK4dmlc6Config14ConfigIteratordeB5cxx11Ev
libdmlc.so.1:_ZNK4dmlc6Config14ConfigIteratoreqERKS1_
libdmlc.so.1:_ZNK4dmlc6Config14ConfigIteratorneERKS1_
libdmlc.so.1:_ZNK4dmlc6Config15IsGenuineStringERKNSt7__cxx1112basic_stringIcSt11char_traitsIcESaIcEEE
libdmlc.so.1:_ZNK4dmlc6Config3endEv
libdmlc.so.1:_ZNK4dmlc6Config5beginEv
libdmlc.so.1:_ZNK4dmlc6Config8GetParamERKNSt7__cxx1112basic_stringIcSt11char_traitsIcESaIcEEE
